; Function Attrs: inlinehint nounwind uwtable
define internal fastcc void @backup_file_grow(ptr noundef captures(none) %0, i64 noundef %1) unnamed_addr #10 {
  %3 = load i64, ptr %0, align 8
  %4 = getelementptr inbounds nuw i8, ptr %0, i64 24
  %5 = load ptr, ptr %4, align 8
  %6 = tail call i64 @llvm.umax.i64(i64 %1, i64 2)
  %7 = tail call range(i64 1, 65) i64 @llvm.ctpop.i64(i64 %6)
  %8 = icmp samesign ult i64 %7, 2
  %9 = tail call range(i64 0, 65) i64 @llvm.ctlz.i64(i64 %6, i1 true)
  %10 = sub nuw nsw i64 64, %9
  %11 = shl nuw i64 1, %10
  %.0.i.i = select i1 %8, i64 %6, i64 %11
  %12 = mul i64 %.0.i.i, 24
  %13 = icmp ugt i64 %12, 9223372036854775806
  br i1 %13, label %14, label %backup_file_compute_size.exit, !prof !5

14:                                               ; preds = %2
  %15 = tail call zeroext i1 @errstart_cold(i32 noundef 21, ptr noundef null) #17
  tail call void @llvm.assume(i1 %15)
  %16 = tail call i32 (ptr, ...) @errmsg_internal(ptr noundef nonnull @.str.15) #14
  tail call void @errfinish(ptr noundef nonnull @.str.16, i32 noundef 327, ptr noundef nonnull @__func__.backup_file_compute_size) #14
  unreachable

backup_file_compute_size.exit:                    ; preds = %2
  %17 = getelementptr i8, ptr %0, i64 32
  %.val = load ptr, ptr %17, align 8
  %18 = tail call ptr @MemoryContextAllocExtended(ptr noundef %.val, i64 noundef %12, i32 noundef 5) #14
  store ptr %18, ptr %4, align 8
  %19 = tail call range(i64 1, 65) i64 @llvm.ctpop.i64(i64 %.0.i.i)
  %20 = icmp samesign ult i64 %19, 2
  %21 = tail call range(i64 0, 65) i64 @llvm.ctlz.i64(i64 %.0.i.i, i1 true)
  %22 = sub nuw nsw i64 64, %21
  %23 = shl nuw i64 1, %22
  %.0.i.i.i = select i1 %20, i64 %.0.i.i, i64 %23
  %24 = mul i64 %.0.i.i.i, 24
  %25 = icmp ugt i64 %24, 9223372036854775806
  br i1 %25, label %26, label %backup_file_update_parameters.exit, !prof !5

26:                                               ; preds = %backup_file_compute_size.exit
  %27 = tail call zeroext i1 @errstart_cold(i32 noundef 21, ptr noundef null) #17
  tail call void @llvm.assume(i1 %27)
  %28 = tail call i32 (ptr, ...) @errmsg_internal(ptr noundef nonnull @.str.15) #14
  tail call void @errfinish(ptr noundef nonnull @.str.16, i32 noundef 327, ptr noundef nonnull @__func__.backup_file_compute_size) #14
  unreachable

backup_file_update_parameters.exit:               ; preds = %backup_file_compute_size.exit
  store i64 %.0.i.i.i, ptr %0, align 8
  %29 = trunc i64 %.0.i.i.i to i32
  %30 = add i32 %29, -1
  %31 = getelementptr inbounds nuw i8, ptr %0, i64 12
  store i32 %30, ptr %31, align 4
  %32 = icmp eq i64 %.0.i.i.i, 4294967296
  %33 = uitofp i64 %.0.i.i.i to double
  %34 = fmul double %33, 9.000000e-01
  %35 = fptoui double %34 to i32
  %.sink.i = select i1 %32, i32 -85899346, i32 %35
  %36 = getelementptr inbounds nuw i8, ptr %0, i64 16
  store i32 %.sink.i, ptr %36, align 8
  %.not72 = icmp eq i64 %3, 0
  br i1 %.not72, label %._crit_edge, label %.lr.ph

.lr.ph:                                           ; preds = %backup_file_update_parameters.exit, %47
  %37 = phi i64 [ %49, %47 ], [ 0, %backup_file_update_parameters.exit ]
  %.064 = phi i32 [ %48, %47 ], [ 0, %backup_file_update_parameters.exit ]
  %38 = getelementptr inbounds nuw %struct.backup_file_entry, ptr %5, i64 %37
  %39 = load i32, ptr %38, align 8
  %.not = icmp eq i32 %39, 1
  br i1 %.not, label %40, label %.lr.ph71.preheader

40:                                               ; preds = %.lr.ph
  %41 = getelementptr i8, ptr %38, i64 8
  %.val56 = load ptr, ptr %41, align 8
  %42 = tail call i64 @strlen(ptr noundef nonnull dereferenceable(1) %.val56) #16
  %43 = trunc i64 %42 to i32
  %44 = tail call i32 @hash_bytes(ptr noundef nonnull %.val56, i32 noundef %43) #14
  %.val59 = load i32, ptr %31, align 4
  %45 = and i32 %.val59, %44
  %46 = icmp eq i32 %45, %.064
  br i1 %46, label %.lr.ph71.preheader, label %47

47:                                               ; preds = %40
  %48 = add i32 %.064, 1
  %49 = zext i32 %48 to i64
  %50 = icmp ugt i64 %3, %49
  br i1 %50, label %.lr.ph, label %.lr.ph71.preheader, !llvm.loop !14

.lr.ph71.preheader:                               ; preds = %47, %.lr.ph, %40
  %.05169.ph = phi i32 [ %.064, %40 ], [ %.064, %.lr.ph ], [ 0, %47 ]
  br label %.lr.ph71

.lr.ph71:                                         ; preds = %.lr.ph71.preheader, %67
  %.170 = phi i32 [ %70, %67 ], [ 0, %.lr.ph71.preheader ]
  %.05169 = phi i32 [ %spec.store.select, %67 ], [ %.05169.ph, %.lr.ph71.preheader ]
  %51 = zext i32 %.05169 to i64
  %52 = getelementptr inbounds nuw %struct.backup_file_entry, ptr %5, i64 %51
  %53 = load i32, ptr %52, align 8
  %54 = icmp eq i32 %53, 1
  br i1 %54, label %55, label %67

55:                                               ; preds = %.lr.ph71
  %56 = getelementptr i8, ptr %52, i64 8
  %.val57 = load ptr, ptr %56, align 8
  %57 = tail call i64 @strlen(ptr noundef nonnull dereferenceable(1) %.val57) #16
  %58 = trunc i64 %57 to i32
  %59 = tail call i32 @hash_bytes(ptr noundef nonnull %.val57, i32 noundef %58) #14
  %.val58 = load i32, ptr %31, align 4
  br label %60

60:                                               ; preds = %60, %55
  %.pn = phi i32 [ %59, %55 ], [ %65, %60 ]
  %.048 = and i32 %.pn, %.val58
  %61 = zext i32 %.048 to i64
  %62 = getelementptr inbounds nuw %struct.backup_file_entry, ptr %18, i64 %61
  %63 = load i32, ptr %62, align 8
  %64 = icmp eq i32 %63, 0
  %65 = add i32 %.048, 1
  br i1 %64, label %66, label %60

66:                                               ; preds = %60
  tail call void @llvm.memcpy.p0.p0.i64(ptr noundef nonnull align 8 dereferenceable(24) %62, ptr noundef nonnull align 8 dereferenceable(24) %52, i64 24, i1 false)
  br label %67

67:                                               ; preds = %66, %.lr.ph71
  %68 = add i32 %.05169, 1
  %69 = zext i32 %68 to i64
  %.not55 = icmp ugt i64 %3, %69
  %spec.store.select = select i1 %.not55, i32 %68, i32 0
  %70 = add i32 %.170, 1
  %71 = zext i32 %70 to i64
  %72 = icmp ugt i64 %3, %71
  br i1 %72, label %.lr.ph71, label %._crit_edge, !llvm.loop !15

._crit_edge:                                      ; preds = %67, %backup_file_update_parameters.exit
  tail call void @pfree(ptr noundef %5) #14
  ret void
}